; Function Attrs: nounwind uwtable
define noundef ptr @dt_ioppr_set_pipe_work_profile_info(ptr noundef captures(none) %0, ptr noundef writeonly captures(none) initializes((304, 312)) %1, i32 noundef %2, ptr noundef %3, i32 noundef %4) local_unnamed_addr #0 {
  %6 = tail call ptr @dt_ioppr_add_profile_info_to_list(ptr noundef %0, i32 noundef %2, ptr noundef %3, i32 noundef %4)
  %7 = icmp eq ptr %6, null
  br i1 %7, label %18, label %8

8:                                                ; preds = %5
  %9 = getelementptr inbounds nuw i8, ptr %6, i64 576
  %10 = load float, ptr %9, align 64, !tbaa !14
  %11 = tail call float @llvm.fabs.f32(float %10)
  %12 = fcmp ueq float %11, 0x7FF0000000000000
  br i1 %12, label %18, label %13

13:                                               ; preds = %8
  %14 = getelementptr inbounds nuw i8, ptr %6, i64 640
  %15 = load float, ptr %14, align 64, !tbaa !14
  %16 = tail call float @llvm.fabs.f32(float %15)
  %17 = fcmp ueq float %16, 0x7FF0000000000000
  br i1 %17, label %18, label %21

18:                                               ; preds = %13, %8, %5
  %19 = tail call ptr @dt_colorspaces_get_name(i32 noundef %2, ptr noundef null) #17
  tail call void (ptr, ...) @dt_print_ext(ptr noundef nonnull @.str.2, ptr noundef %19, ptr noundef %3) #17
  %20 = tail call ptr @dt_ioppr_add_profile_info_to_list(ptr noundef %0, i32 noundef 4, ptr noundef nonnull @.str.3, i32 noundef %4)
  br label %21

21:                                               ; preds = %18, %13
  %.0 = phi ptr [ %20, %18 ], [ %6, %13 ]
  %22 = getelementptr inbounds nuw i8, ptr %1, i64 304
  store ptr %.0, ptr %22, align 16, !tbaa !114
  ret ptr %.0
}